#include <math.h>
#include <stdio.h>
#include <stdlib.h>
#include <string.h>

void main()
{
	int a[1000],n,i=1,s=0;
	char t;
	scanf("%d",&a[1]);
	while((t=getchar())==',')
	scanf("%d",&a[++i]);
	n=i;
	if(n==1){printf("No");return;}
	for(i=2;i<=n;i++)
		if(a[i]!=a[1])break;
	if(i==n+1){printf("No");return;}
	for(i=1;i<=n;i++)
		if(a[i]>s)s=a[i];
	for(i=1;i<=n;i++)
		if(a[i]==s)a[i]=0;
	s=0;
    for(i=1;i<=n;i++)
		if(a[i]>s)s=a[i];
	printf("%d",s);
	return;
}

	

