; ModuleID = '22/235.c'
source_filename = "22/235.c"
target datalayout = "e-m:e-p270:32:32-p271:32:32-p272:64:64-i64:64-f80:128-n8:16:32:64-S128"
target triple = "x86_64-pc-linux-gnu"

@.str = private unnamed_addr constant [3 x i8] c"%d\00", align 1
@.str.1 = private unnamed_addr constant [3 x i8] c"No\00", align 1

; Function Attrs: noinline nounwind uwtable
define dso_local void @main() #0 {
  %1 = alloca [1000 x i32], align 16
  %2 = alloca i32, align 4
  %3 = alloca i32, align 4
  %4 = alloca i32, align 4
  %5 = alloca i8, align 1
  store i32 1, i32* %3, align 4
  store i32 0, i32* %4, align 4
  %6 = getelementptr inbounds [1000 x i32], [1000 x i32]* %1, i64 0, i64 1
  %7 = call i32 (i8*, ...) @__isoc99_scanf(i8* getelementptr inbounds ([3 x i8], [3 x i8]* @.str, i64 0, i64 0), i32* %6)
  br label %8

8:                                                ; preds = %13, %0
  %9 = call i32 @getchar()
  %10 = trunc i32 %9 to i8
  store i8 %10, i8* %5, align 1
  %11 = sext i8 %10 to i32
  %12 = icmp eq i32 %11, 44
  br i1 %12, label %13, label %19

13:                                               ; preds = %8
  %14 = load i32, i32* %3, align 4
  %15 = add nsw i32 %14, 1
  store i32 %15, i32* %3, align 4
  %16 = sext i32 %15 to i64
  %17 = getelementptr inbounds [1000 x i32], [1000 x i32]* %1, i64 0, i64 %16
  %18 = call i32 (i8*, ...) @__isoc99_scanf(i8* getelementptr inbounds ([3 x i8], [3 x i8]* @.str, i64 0, i64 0), i32* %17)
  br label %8

19:                                               ; preds = %8
  %20 = load i32, i32* %3, align 4
  store i32 %20, i32* %2, align 4
  %21 = load i32, i32* %2, align 4
  %22 = icmp eq i32 %21, 1
  br i1 %22, label %23, label %25

23:                                               ; preds = %19
  %24 = call i32 (i8*, ...) @printf(i8* getelementptr inbounds ([3 x i8], [3 x i8]* @.str.1, i64 0, i64 0))
  br label %115

25:                                               ; preds = %19
  store i32 2, i32* %3, align 4
  br label %26

26:                                               ; preds = %40, %25
  %27 = load i32, i32* %3, align 4
  %28 = load i32, i32* %2, align 4
  %29 = icmp sle i32 %27, %28
  br i1 %29, label %30, label %43

30:                                               ; preds = %26
  %31 = load i32, i32* %3, align 4
  %32 = sext i32 %31 to i64
  %33 = getelementptr inbounds [1000 x i32], [1000 x i32]* %1, i64 0, i64 %32
  %34 = load i32, i32* %33, align 4
  %35 = getelementptr inbounds [1000 x i32], [1000 x i32]* %1, i64 0, i64 1
  %36 = load i32, i32* %35, align 4
  %37 = icmp ne i32 %34, %36
  br i1 %37, label %38, label %39

38:                                               ; preds = %30
  br label %43

39:                                               ; preds = %30
  br label %40

40:                                               ; preds = %39
  %41 = load i32, i32* %3, align 4
  %42 = add nsw i32 %41, 1
  store i32 %42, i32* %3, align 4
  br label %26

43:                                               ; preds = %38, %26
  %44 = load i32, i32* %3, align 4
  %45 = load i32, i32* %2, align 4
  %46 = add nsw i32 %45, 1
  %47 = icmp eq i32 %44, %46
  br i1 %47, label %48, label %50

48:                                               ; preds = %43
  %49 = call i32 (i8*, ...) @printf(i8* getelementptr inbounds ([3 x i8], [3 x i8]* @.str.1, i64 0, i64 0))
  br label %115

50:                                               ; preds = %43
  store i32 1, i32* %3, align 4
  br label %51

51:                                               ; preds = %68, %50
  %52 = load i32, i32* %3, align 4
  %53 = load i32, i32* %2, align 4
  %54 = icmp sle i32 %52, %53
  br i1 %54, label %55, label %71

55:                                               ; preds = %51
  %56 = load i32, i32* %3, align 4
  %57 = sext i32 %56 to i64
  %58 = getelementptr inbounds [1000 x i32], [1000 x i32]* %1, i64 0, i64 %57
  %59 = load i32, i32* %58, align 4
  %60 = load i32, i32* %4, align 4
  %61 = icmp sgt i32 %59, %60
  br i1 %61, label %62, label %67

62:                                               ; preds = %55
  %63 = load i32, i32* %3, align 4
  %64 = sext i32 %63 to i64
  %65 = getelementptr inbounds [1000 x i32], [1000 x i32]* %1, i64 0, i64 %64
  %66 = load i32, i32* %65, align 4
  store i32 %66, i32* %4, align 4
  br label %67

67:                                               ; preds = %62, %55
  br label %68

68:                                               ; preds = %67
  %69 = load i32, i32* %3, align 4
  %70 = add nsw i32 %69, 1
  store i32 %70, i32* %3, align 4
  br label %51

71:                                               ; preds = %51
  store i32 1, i32* %3, align 4
  br label %72

72:                                               ; preds = %88, %71
  %73 = load i32, i32* %3, align 4
  %74 = load i32, i32* %2, align 4
  %75 = icmp sle i32 %73, %74
  br i1 %75, label %76, label %91

76:                                               ; preds = %72
  %77 = load i32, i32* %3, align 4
  %78 = sext i32 %77 to i64
  %79 = getelementptr inbounds [1000 x i32], [1000 x i32]* %1, i64 0, i64 %78
  %80 = load i32, i32* %79, align 4
  %81 = load i32, i32* %4, align 4
  %82 = icmp eq i32 %80, %81
  br i1 %82, label %83, label %87

83:                                               ; preds = %76
  %84 = load i32, i32* %3, align 4
  %85 = sext i32 %84 to i64
  %86 = getelementptr inbounds [1000 x i32], [1000 x i32]* %1, i64 0, i64 %85
  store i32 0, i32* %86, align 4
  br label %87

87:                                               ; preds = %83, %76
  br label %88

88:                                               ; preds = %87
  %89 = load i32, i32* %3, align 4
  %90 = add nsw i32 %89, 1
  store i32 %90, i32* %3, align 4
  br label %72

91:                                               ; preds = %72
  store i32 0, i32* %4, align 4
  store i32 1, i32* %3, align 4
  br label %92

92:                                               ; preds = %109, %91
  %93 = load i32, i32* %3, align 4
  %94 = load i32, i32* %2, align 4
  %95 = icmp sle i32 %93, %94
  br i1 %95, label %96, label %112

96:                                               ; preds = %92
  %97 = load i32, i32* %3, align 4
  %98 = sext i32 %97 to i64
  %99 = getelementptr inbounds [1000 x i32], [1000 x i32]* %1, i64 0, i64 %98
  %100 = load i32, i32* %99, align 4
  %101 = load i32, i32* %4, align 4
  %102 = icmp sgt i32 %100, %101
  br i1 %102, label %103, label %108

103:                                              ; preds = %96
  %104 = load i32, i32* %3, align 4
  %105 = sext i32 %104 to i64
  %106 = getelementptr inbounds [1000 x i32], [1000 x i32]* %1, i64 0, i64 %105
  %107 = load i32, i32* %106, align 4
  store i32 %107, i32* %4, align 4
  br label %108

108:                                              ; preds = %103, %96
  br label %109

109:                                              ; preds = %108
  %110 = load i32, i32* %3, align 4
  %111 = add nsw i32 %110, 1
  store i32 %111, i32* %3, align 4
  br label %92

112:                                              ; preds = %92
  %113 = load i32, i32* %4, align 4
  %114 = call i32 (i8*, ...) @printf(i8* getelementptr inbounds ([3 x i8], [3 x i8]* @.str, i64 0, i64 0), i32 %113)
  br label %115

115:                                              ; preds = %112, %48, %23
  ret void
}

declare dso_local i32 @__isoc99_scanf(i8*, ...) #1

declare dso_local i32 @getchar() #1

declare dso_local i32 @printf(i8*, ...) #1


!llvm.module.flags = !{!0}
!llvm.ident = !{!1}

!0 = !{i32 1, !"wchar_size", i32 4}
!1 = !{!"clang version 10.0.0-4ubuntu1 "}
